target datalayout = "e-m:e-p270:32:32-p271:32:32-p272:64:64-i64:64-i128:128-f80:128-n8:16:32:64-S128"
target triple = "x86_64-pc-linux-gnu"

%class.MutualInfo = type { i32, i8, i32, ptr, ptr, ptr }

; Function Attrs: mustprogress uwtable
define void @_ZN10MutualInfo7setBinsEj(ptr noundef nonnull align 8 dereferenceable(40) %0, i32 noundef %1) #4 align 2 {
  %3 = alloca ptr, align 8
  %4 = alloca i32, align 4
  store ptr %0, ptr %3, align 8
  store i32 %1, ptr %4, align 4
  %5 = load ptr, ptr %3, align 8
  %6 = load i32, ptr %4, align 4
  %7 = getelementptr inbounds %class.MutualInfo, ptr %5, i32 0, i32 2
  store i32 %6, ptr %7, align 8
  %8 = getelementptr inbounds %class.MutualInfo, ptr %5, i32 0, i32 3
  %9 = load ptr, ptr %8, align 8
  %10 = icmp ne ptr %9, null
  br i1 %10, label %11, label %17

11:                                               ; preds = %2
  %12 = getelementptr inbounds %class.MutualInfo, ptr %5, i32 0, i32 3
  %13 = load ptr, ptr %12, align 8
  %14 = icmp eq ptr %13, null
  br i1 %14, label %16, label %15

15:                                               ; preds = %11
  call void @_ZdaPv(ptr noundef %13) #10
  br label %16

16:                                               ; preds = %15, %11
  br label %17

17:                                               ; preds = %16, %2
  %18 = getelementptr inbounds %class.MutualInfo, ptr %5, i32 0, i32 4
  %19 = load ptr, ptr %18, align 8
  %20 = icmp ne ptr %19, null
  br i1 %20, label %21, label %27

21:                                               ; preds = %17
  %22 = getelementptr inbounds %class.MutualInfo, ptr %5, i32 0, i32 4
  %23 = load ptr, ptr %22, align 8
  %24 = icmp eq ptr %23, null
  br i1 %24, label %26, label %25

25:                                               ; preds = %21
  call void @_ZdaPv(ptr noundef %23) #10
  br label %26

26:                                               ; preds = %25, %21
  br label %27

27:                                               ; preds = %26, %17
  %28 = getelementptr inbounds %class.MutualInfo, ptr %5, i32 0, i32 5
  %29 = load ptr, ptr %28, align 8
  %30 = icmp ne ptr %29, null
  br i1 %30, label %31, label %37

31:                                               ; preds = %27
  %32 = getelementptr inbounds %class.MutualInfo, ptr %5, i32 0, i32 5
  %33 = load ptr, ptr %32, align 8
  %34 = icmp eq ptr %33, null
  br i1 %34, label %36, label %35

35:                                               ; preds = %31
  call void @_ZdaPv(ptr noundef %33) #10
  br label %36

36:                                               ; preds = %35, %31
  br label %37

37:                                               ; preds = %36, %27
  %38 = getelementptr inbounds %class.MutualInfo, ptr %5, i32 0, i32 2
  %39 = load i32, ptr %38, align 8
  %40 = getelementptr inbounds %class.MutualInfo, ptr %5, i32 0, i32 2
  %41 = load i32, ptr %40, align 8
  %42 = mul i32 %39, %41
  %43 = zext i32 %42 to i64
  %44 = call { i64, i1 } @llvm.umul.with.overflow.i64(i64 %43, i64 4)
  %45 = extractvalue { i64, i1 } %44, 1
  %46 = extractvalue { i64, i1 } %44, 0
  %47 = select i1 %45, i64 -1, i64 %46
  %48 = call noalias noundef nonnull ptr @_Znam(i64 noundef %47) #11
  %49 = getelementptr inbounds %class.MutualInfo, ptr %5, i32 0, i32 3
  store ptr %48, ptr %49, align 8
  %50 = getelementptr inbounds %class.MutualInfo, ptr %5, i32 0, i32 2
  %51 = load i32, ptr %50, align 8
  %52 = zext i32 %51 to i64
  %53 = call { i64, i1 } @llvm.umul.with.overflow.i64(i64 %52, i64 4)
  %54 = extractvalue { i64, i1 } %53, 1
  %55 = extractvalue { i64, i1 } %53, 0
  %56 = select i1 %54, i64 -1, i64 %55
  %57 = call noalias noundef nonnull ptr @_Znam(i64 noundef %56) #11
  %58 = getelementptr inbounds %class.MutualInfo, ptr %5, i32 0, i32 4
  store ptr %57, ptr %58, align 8
  %59 = getelementptr inbounds %class.MutualInfo, ptr %5, i32 0, i32 2
  %60 = load i32, ptr %59, align 8
  %61 = zext i32 %60 to i64
  %62 = call { i64, i1 } @llvm.umul.with.overflow.i64(i64 %61, i64 4)
  %63 = extractvalue { i64, i1 } %62, 1
  %64 = extractvalue { i64, i1 } %62, 0
  %65 = select i1 %63, i64 -1, i64 %64
  %66 = call noalias noundef nonnull ptr @_Znam(i64 noundef %65) #11
  %67 = getelementptr inbounds %class.MutualInfo, ptr %5, i32 0, i32 5
  store ptr %66, ptr %67, align 8
  ret void
}