; Function Attrs: mustprogress uwtable
define void @_ZN10MutualInfo7setBinsEj(ptr noundef nonnull align 8 captures(none) dereferenceable(40) initializes((8, 12)) %0, i32 noundef %1) local_unnamed_addr #3 align 2 {
  %3 = getelementptr inbounds nuw i8, ptr %0, i64 8
  store i32 %1, ptr %3, align 8
  %4 = getelementptr inbounds nuw i8, ptr %0, i64 16
  %5 = load ptr, ptr %4, align 8
  %.not = icmp eq ptr %5, null
  br i1 %.not, label %7, label %6

6:                                                ; preds = %2
  tail call void @_ZdaPv(ptr noundef nonnull %5) #13
  br label %7

7:                                                ; preds = %6, %2
  %8 = getelementptr inbounds nuw i8, ptr %0, i64 24
  %9 = load ptr, ptr %8, align 8
  %.not3 = icmp eq ptr %9, null
  br i1 %.not3, label %11, label %10

10:                                               ; preds = %7
  tail call void @_ZdaPv(ptr noundef nonnull %9) #13
  br label %11

11:                                               ; preds = %10, %7
  %12 = getelementptr inbounds nuw i8, ptr %0, i64 32
  %13 = load ptr, ptr %12, align 8
  %.not4 = icmp eq ptr %13, null
  br i1 %.not4, label %15, label %14

14:                                               ; preds = %11
  tail call void @_ZdaPv(ptr noundef nonnull %13) #13
  br label %15

15:                                               ; preds = %14, %11
  %16 = load i32, ptr %3, align 8
  %17 = mul i32 %16, %16
  %18 = zext i32 %17 to i64
  %19 = shl nuw nsw i64 %18, 2
  %20 = tail call noalias noundef nonnull ptr @_Znam(i64 noundef %19) #14
  store ptr %20, ptr %4, align 8
  %21 = zext i32 %16 to i64
  %22 = shl nuw nsw i64 %21, 2
  %23 = tail call noalias noundef nonnull ptr @_Znam(i64 noundef %22) #14
  store ptr %23, ptr %8, align 8
  %24 = tail call noalias noundef nonnull ptr @_Znam(i64 noundef %22) #14
  store ptr %24, ptr %12, align 8
  ret void
}